target datalayout = "e-m:e-p270:32:32-p271:32:32-p272:64:64-i64:64-i128:128-f80:128-n8:16:32:64-S128"
target triple = "x86_64-unknown-linux-gnu"

%"class.pugi::xml_node" = type { ptr }
%"class.pugi::xml_node_iterator" = type { %"class.pugi::xml_node", %"class.pugi::xml_node" }
%"struct.pugi::xml_node_struct" = type { i64, ptr, ptr, ptr, ptr, ptr, ptr, ptr }
%"class.pugi::xml_object_range" = type { %"class.pugi::xml_node_iterator", %"class.pugi::xml_node_iterator" }

@_ZN4pugi17xml_node_iteratorC1EPNS_15xml_node_structES2_ = unnamed_addr alias void (ptr, ptr, ptr), ptr @_ZN4pugi17xml_node_iteratorC2EPNS_15xml_node_structES2_

; Function Attrs: mustprogress nounwind uwtable
define linkonce_odr void @_ZN4pugi16xml_object_rangeINS_17xml_node_iteratorEEC2ES1_S1_(ptr noundef nonnull align 8 dereferenceable(32) %this, ptr %b.coerce0, ptr %b.coerce1, ptr %e.coerce0, ptr %e.coerce1) unnamed_addr #0 comdat align 2 {
entry:
  %b = alloca %"class.pugi::xml_node_iterator", align 8
  %e = alloca %"class.pugi::xml_node_iterator", align 8
  %this.addr = alloca ptr, align 8
  %0 = getelementptr inbounds { ptr, ptr }, ptr %b, i32 0, i32 0
  store ptr %b.coerce0, ptr %0, align 8
  %1 = getelementptr inbounds { ptr, ptr }, ptr %b, i32 0, i32 1
  store ptr %b.coerce1, ptr %1, align 8
  %2 = getelementptr inbounds { ptr, ptr }, ptr %e, i32 0, i32 0
  store ptr %e.coerce0, ptr %2, align 8
  %3 = getelementptr inbounds { ptr, ptr }, ptr %e, i32 0, i32 1
  store ptr %e.coerce1, ptr %3, align 8
  store ptr %this, ptr %this.addr, align 8
  %this1 = load ptr, ptr %this.addr, align 8
  %_begin = getelementptr inbounds %"class.pugi::xml_object_range", ptr %this1, i32 0, i32 0
  call void @llvm.memcpy.p0.p0.i64(ptr align 8 %_begin, ptr align 8 %b, i64 16, i1 false)
  %_end = getelementptr inbounds %"class.pugi::xml_object_range", ptr %this1, i32 0, i32 1
  call void @llvm.memcpy.p0.p0.i64(ptr align 8 %_end, ptr align 8 %e, i64 16, i1 false)
  ret void
}

; Function Attrs: mustprogress uwtable
define { ptr, ptr } @_ZNK4pugi8xml_node3endEv(ptr noundef nonnull align 8 dereferenceable(8) %this) #2 align 2 {
entry:
  %retval = alloca %"class.pugi::xml_node_iterator", align 8
  %this.addr = alloca ptr, align 8
  store ptr %this, ptr %this.addr, align 8
  %this1 = load ptr, ptr %this.addr, align 8
  %_root = getelementptr inbounds %"class.pugi::xml_node", ptr %this1, i32 0, i32 0
  %0 = load ptr, ptr %_root, align 8
  call void @_ZN4pugi17xml_node_iteratorC1EPNS_15xml_node_structES2_(ptr noundef nonnull align 8 dereferenceable(16) %retval, ptr noundef null, ptr noundef %0)
  %1 = load { ptr, ptr }, ptr %retval, align 8
  ret { ptr, ptr } %1
}

; Function Attrs: mustprogress uwtable
define { ptr, ptr } @_ZNK4pugi8xml_node5beginEv(ptr noundef nonnull align 8 dereferenceable(8) %this) #2 align 2 {
entry:
  %retval = alloca %"class.pugi::xml_node_iterator", align 8
  %this.addr = alloca ptr, align 8
  store ptr %this, ptr %this.addr, align 8
  %this1 = load ptr, ptr %this.addr, align 8
  %_root = getelementptr inbounds %"class.pugi::xml_node", ptr %this1, i32 0, i32 0
  %0 = load ptr, ptr %_root, align 8
  %tobool = icmp ne ptr %0, null
  br i1 %tobool, label %cond.true, label %cond.false

cond.true:                                        ; preds = %entry
  %_root2 = getelementptr inbounds %"class.pugi::xml_node", ptr %this1, i32 0, i32 0
  %1 = load ptr, ptr %_root2, align 8
  %first_child = getelementptr inbounds %"struct.pugi::xml_node_struct", ptr %1, i32 0, i32 4
  %2 = load ptr, ptr %first_child, align 8
  %add.ptr = getelementptr inbounds %"struct.pugi::xml_node_struct", ptr %2, i64 0
  br label %cond.end

cond.false:                                       ; preds = %entry
  br label %cond.end

cond.end:                                         ; preds = %cond.false, %cond.true
  %cond = phi ptr [ %add.ptr, %cond.true ], [ null, %cond.false ]
  %_root3 = getelementptr inbounds %"class.pugi::xml_node", ptr %this1, i32 0, i32 0
  %3 = load ptr, ptr %_root3, align 8
  call void @_ZN4pugi17xml_node_iteratorC1EPNS_15xml_node_structES2_(ptr noundef nonnull align 8 dereferenceable(16) %retval, ptr noundef %cond, ptr noundef %3)
  %4 = load { ptr, ptr }, ptr %retval, align 8
  ret { ptr, ptr } %4
}

; Function Attrs: mustprogress uwtable
define void @_ZNK4pugi8xml_node8childrenEv(ptr noalias sret(%"class.pugi::xml_object_range") align 8 %agg.result, ptr noundef nonnull align 8 dereferenceable(8) %this) #2 align 2 {
entry:
  %this.addr = alloca ptr, align 8
  %agg.tmp = alloca %"class.pugi::xml_node_iterator", align 8
  %agg.tmp2 = alloca %"class.pugi::xml_node_iterator", align 8
  store ptr %this, ptr %this.addr, align 8
  %this1 = load ptr, ptr %this.addr, align 8
  %call = call { ptr, ptr } @_ZNK4pugi8xml_node5beginEv(ptr noundef nonnull align 8 dereferenceable(8) %this1)
  %0 = getelementptr inbounds { ptr, ptr }, ptr %agg.tmp, i32 0, i32 0
  %1 = extractvalue { ptr, ptr } %call, 0
  store ptr %1, ptr %0, align 8
  %2 = getelementptr inbounds { ptr, ptr }, ptr %agg.tmp, i32 0, i32 1
  %3 = extractvalue { ptr, ptr } %call, 1
  store ptr %3, ptr %2, align 8
  %call3 = call { ptr, ptr } @_ZNK4pugi8xml_node3endEv(ptr noundef nonnull align 8 dereferenceable(8) %this1)
  %4 = getelementptr inbounds { ptr, ptr }, ptr %agg.tmp2, i32 0, i32 0
  %5 = extractvalue { ptr, ptr } %call3, 0
  store ptr %5, ptr %4, align 8
  %6 = getelementptr inbounds { ptr, ptr }, ptr %agg.tmp2, i32 0, i32 1
  %7 = extractvalue { ptr, ptr } %call3, 1
  store ptr %7, ptr %6, align 8
  %8 = getelementptr inbounds { ptr, ptr }, ptr %agg.tmp, i32 0, i32 0
  %9 = load ptr, ptr %8, align 8
  %10 = getelementptr inbounds { ptr, ptr }, ptr %agg.tmp, i32 0, i32 1
  %11 = load ptr, ptr %10, align 8
  %12 = getelementptr inbounds { ptr, ptr }, ptr %agg.tmp2, i32 0, i32 0
  %13 = load ptr, ptr %12, align 8
  %14 = getelementptr inbounds { ptr, ptr }, ptr %agg.tmp2, i32 0, i32 1
  %15 = load ptr, ptr %14, align 8
  call void @_ZN4pugi16xml_object_rangeINS_17xml_node_iteratorEEC2ES1_S1_(ptr noundef nonnull align 8 dereferenceable(32) %agg.result, ptr %9, ptr %11, ptr %13, ptr %15)
  ret void
}