; Function Attrs: mustprogress uwtable
define void @_ZNK4pugi8xml_node8childrenEv(ptr noalias nocapture writeonly sret(%"class.pugi::xml_object_range") align 8 %agg.result, ptr nocapture noundef nonnull readonly align 8 dereferenceable(8) %this) local_unnamed_addr #6 align 2 {
entry:
  %retval.i1 = alloca %"class.pugi::xml_node_iterator", align 16
  %retval.i = alloca %"class.pugi::xml_node_iterator", align 16
  call void @llvm.lifetime.start.p0(i64 16, ptr nonnull %retval.i)
  %0 = load ptr, ptr %this, align 8
  %tobool.not.i = icmp eq ptr %0, null
  br i1 %tobool.not.i, label %_ZNK4pugi8xml_node5beginEv.exit, label %cond.true.i

cond.true.i:                                      ; preds = %entry
  %first_child.i = getelementptr inbounds i8, ptr %0, i64 32
  %1 = load ptr, ptr %first_child.i, align 8
  br label %_ZNK4pugi8xml_node5beginEv.exit

_ZNK4pugi8xml_node5beginEv.exit:                  ; preds = %entry, %cond.true.i
  %cond.i = phi ptr [ %1, %cond.true.i ], [ null, %entry ]
  call void @_ZN4pugi17xml_node_iteratorC1EPNS_15xml_node_structES2_(ptr noundef nonnull align 8 dereferenceable(16) %retval.i, ptr noundef %cond.i, ptr noundef %0)
  %2 = load <2 x ptr>, ptr %retval.i, align 16
  call void @llvm.lifetime.end.p0(i64 16, ptr nonnull %retval.i)
  call void @llvm.lifetime.start.p0(i64 16, ptr nonnull %retval.i1)
  %3 = load ptr, ptr %this, align 8
  call void @_ZN4pugi17xml_node_iteratorC1EPNS_15xml_node_structES2_(ptr noundef nonnull align 8 dereferenceable(16) %retval.i1, ptr noundef null, ptr noundef %3)
  %_end.i = getelementptr inbounds i8, ptr %agg.result, i64 16
  %4 = load <2 x ptr>, ptr %retval.i1, align 16
  call void @llvm.lifetime.end.p0(i64 16, ptr nonnull %retval.i1)
  store <2 x ptr> %2, ptr %agg.result, align 8
  store <2 x ptr> %4, ptr %_end.i, align 8
  ret void
}